target datalayout = "e-m:e-p270:32:32-p271:32:32-p272:64:64-i64:64-i128:128-f80:128-n8:16:32:64-S128"
target triple = "x86_64-pc-linux-gnu"

@.str.3 = private unnamed_addr constant [2 x i8] c"\0A\00", align 1
@.str.4 = private unnamed_addr constant [43 x i8] c"    glift <command> [options] [selection]\0A\00", align 1
@.str.5 = private unnamed_addr constant [76 x i8] c"Augments the current or specified module with gate-level information flow \0A\00", align 1
@.str.6 = private unnamed_addr constant [80 x i8] c"tracking (GLIFT) logic using the \22constructive mapping\22 approach. Also can set\0A\00", align 1
@.str.7 = private unnamed_addr constant [81 x i8] c"up QBF-SAT optimization problems in order to optimize GLIFT models or trade off\0A\00", align 1
@.str.8 = private unnamed_addr constant [27 x i8] c"precision and complexity.\0A\00", align 1
@.str.9 = private unnamed_addr constant [11 x i8] c"Commands:\0A\00", align 1
@.str.10 = private unnamed_addr constant [25 x i8] c"  -create-precise-model\0A\00", align 1
@.str.11 = private unnamed_addr constant [78 x i8] c"    Replaces the current or specified module with one that has corresponding\0A\00", align 1
@.str.12 = private unnamed_addr constant [73 x i8] c"    \22taint\22 inputs, outputs, and internal nets along with precise taint\0A\00", align 1
@.str.13 = private unnamed_addr constant [79 x i8] c"    tracking logic. For example, precise taint tracking logic for an AND gate\0A\00", align 1
@.str.14 = private unnamed_addr constant [9 x i8] c"    is:\0A\00", align 1
@.str.15 = private unnamed_addr constant [43 x i8] c"      y_t = a & b_t | b & a_t | a_t & b_t\0A\00", align 1
@.str.16 = private unnamed_addr constant [27 x i8] c"  -create-imprecise-model\0A\00", align 1
@.str.17 = private unnamed_addr constant [78 x i8] c"    \22taint\22 inputs, outputs, and internal nets along with imprecise \22All OR\22\0A\00", align 1
@.str.18 = private unnamed_addr constant [27 x i8] c"    taint tracking logic:\0A\00", align 1
@.str.19 = private unnamed_addr constant [23 x i8] c"      y_t = a_t | b_t\0A\00", align 1
@.str.20 = private unnamed_addr constant [30 x i8] c"  -create-instrumented-model\0A\00", align 1
@.str.21 = private unnamed_addr constant [79 x i8] c"    \22taint\22 inputs, outputs, and internal nets along with 4 varying-precision\0A\00", align 1
@.str.22 = private unnamed_addr constant [80 x i8] c"    versions of taint tracking logic. Which version of taint tracking logic is\0A\00", align 1
@.str.23 = private unnamed_addr constant [81 x i8] c"    used for a given gate is determined by a MUX selected by an $anyconst cell.\0A\00", align 1
@.str.24 = private unnamed_addr constant [80 x i8] c"     By default, unless the `-no-cost-model` option is provided, an additional\0A\00", align 1
@.str.25 = private unnamed_addr constant [78 x i8] c"    wire named `__glift_weight` with the `keep` and `minimize` attributes is\0A\00", align 1
@.str.26 = private unnamed_addr constant [75 x i8] c"    added to the module along with pmuxes and adders to calculate a rough\0A\00", align 1
@.str.27 = private unnamed_addr constant [82 x i8] c"    estimate of the number of logic gates in the GLIFT model given an assignment\0A\00", align 1
@.str.28 = private unnamed_addr constant [79 x i8] c"    for the $anyconst cells. The four versions of taint tracking logic for an\0A\00", align 1
@.str.29 = private unnamed_addr constant [19 x i8] c"    AND gate are:\0A\00", align 1
@.str.30 = private unnamed_addr constant [80 x i8] c"      y_t = a & b_t | b & a_t | a_t & b_t       (like `-create-precise-model`)\0A\00", align 1
@.str.31 = private unnamed_addr constant [27 x i8] c"      y_t = a_t | a & b_t\0A\00", align 1
@.str.32 = private unnamed_addr constant [27 x i8] c"      y_t = b_t | b & a_t\0A\00", align 1
@.str.33 = private unnamed_addr constant [82 x i8] c"      y_t = a_t | b_t                           (like `-create-imprecise-model`)\0A\00", align 1
@.str.34 = private unnamed_addr constant [10 x i8] c"Options:\0A\00", align 1
@.str.35 = private unnamed_addr constant [20 x i8] c"  -taint-constants\0A\00", align 1
@.str.36 = private unnamed_addr constant [59 x i8] c"    Constant values in the design are labeled as tainted.\0A\00", align 1
@.str.37 = private unnamed_addr constant [46 x i8] c"    (default: label constants as un-tainted)\0A\00", align 1
@.str.38 = private unnamed_addr constant [17 x i8] c"  -keep-outputs\0A\00", align 1
@.str.39 = private unnamed_addr constant [77 x i8] c"    Do not remove module outputs. Taint tracking outputs will appear in the\0A\00", align 1
@.str.40 = private unnamed_addr constant [49 x i8] c"    module ports alongside the orignal outputs.\0A\00", align 1
@.str.41 = private unnamed_addr constant [52 x i8] c"    (default: original module outputs are removed)\0A\00", align 1
@.str.42 = private unnamed_addr constant [22 x i8] c"  -simple-cost-model\0A\00", align 1
@.str.43 = private unnamed_addr constant [82 x i8] c"    Do not model logic area. Instead model the number of non-zero assignments to\0A\00", align 1
@.str.44 = private unnamed_addr constant [75 x i8] c"    $anyconsts. Taint tracking logic versions vary in their size, but all\0A\00", align 1
@.str.45 = private unnamed_addr constant [81 x i8] c"    reduced-precision versions are significantly smaller than the fully-precise\0A\00", align 1
@.str.46 = private unnamed_addr constant [81 x i8] c"    version. A non-zero $anyconst assignment means that reduced-precision taint\0A\00", align 1
@.str.47 = private unnamed_addr constant [82 x i8] c"    tracking logic was chosen for some gate. Only applicable in combination with\0A\00", align 1
@.str.48 = private unnamed_addr constant [79 x i8] c"    `-create-instrumented-model`. (default: use a complex model and give that\0A\00", align 1
@.str.49 = private unnamed_addr constant [49 x i8] c"     wire the \22keep\22 and \22minimize\22 attributes)\0A\00", align 1
@.str.50 = private unnamed_addr constant [18 x i8] c"  -no-cost-model\0A\00", align 1
@.str.51 = private unnamed_addr constant [81 x i8] c"    Do not model taint tracking logic area and do not create a `__glift_weight`\0A\00", align 1
@.str.52 = private unnamed_addr constant [77 x i8] c"    wire. Only applicable in combination with `-create-instrumented-model`.\0A\00", align 1
@.str.53 = private unnamed_addr constant [71 x i8] c"    (default: model area and give that wire the \22keep\22 and \22minimize\22\0A\00", align 1
@.str.54 = private unnamed_addr constant [17 x i8] c"    attributes)\0A\00", align 1
@.str.55 = private unnamed_addr constant [20 x i8] c"  -instrument-more\0A\00", align 1
@.str.56 = private unnamed_addr constant [79 x i8] c"    Allow choice from more versions of (even simpler) taint tracking logic. A\0A\00", align 1
@.str.57 = private unnamed_addr constant [73 x i8] c"    total of 8 versions of taint tracking logic will be added per gate,\0A\00", align 1
@.str.58 = private unnamed_addr constant [74 x i8] c"    including the 4 versions from `-create-instrumented-model` and these\0A\00", align 1
@.str.59 = private unnamed_addr constant [26 x i8] c"    additional versions:\0A\00", align 1
@.str.60 = private unnamed_addr constant [17 x i8] c"      y_t = a_t\0A\00", align 1
@.str.61 = private unnamed_addr constant [17 x i8] c"      y_t = b_t\0A\00", align 1
@.str.62 = private unnamed_addr constant [15 x i8] c"      y_t = 1\0A\00", align 1
@.str.63 = private unnamed_addr constant [15 x i8] c"      y_t = 0\0A\00", align 1
@.str.64 = private unnamed_addr constant [71 x i8] c"    Only applicable in combination with `-create-instrumented-model`.\0A\00", align 1
@.str.65 = private unnamed_addr constant [65 x i8] c"    (default: do not add more versions of taint tracking logic.\0A\00", align 1

; Function Attrs: mustprogress uwtable
define internal void @_ZN12_GLOBAL__N_19GliftPass4helpEv(ptr noundef nonnull align 8 dereferenceable(104) %0) unnamed_addr #4 align 2 {
  %2 = alloca ptr, align 8
  store ptr %0, ptr %2, align 8
  call void (ptr, ...) @_ZN5Yosys3logEPKcz(ptr noundef @.str.3)
  call void (ptr, ...) @_ZN5Yosys3logEPKcz(ptr noundef @.str.4)
  call void (ptr, ...) @_ZN5Yosys3logEPKcz(ptr noundef @.str.3)
  call void (ptr, ...) @_ZN5Yosys3logEPKcz(ptr noundef @.str.5)
  call void (ptr, ...) @_ZN5Yosys3logEPKcz(ptr noundef @.str.6)
  call void (ptr, ...) @_ZN5Yosys3logEPKcz(ptr noundef @.str.7)
  call void (ptr, ...) @_ZN5Yosys3logEPKcz(ptr noundef @.str.8)
  call void (ptr, ...) @_ZN5Yosys3logEPKcz(ptr noundef @.str.3)
  call void (ptr, ...) @_ZN5Yosys3logEPKcz(ptr noundef @.str.3)
  call void (ptr, ...) @_ZN5Yosys3logEPKcz(ptr noundef @.str.9)
  call void (ptr, ...) @_ZN5Yosys3logEPKcz(ptr noundef @.str.3)
  call void (ptr, ...) @_ZN5Yosys3logEPKcz(ptr noundef @.str.10)
  call void (ptr, ...) @_ZN5Yosys3logEPKcz(ptr noundef @.str.11)
  call void (ptr, ...) @_ZN5Yosys3logEPKcz(ptr noundef @.str.12)
  call void (ptr, ...) @_ZN5Yosys3logEPKcz(ptr noundef @.str.13)
  call void (ptr, ...) @_ZN5Yosys3logEPKcz(ptr noundef @.str.14)
  call void (ptr, ...) @_ZN5Yosys3logEPKcz(ptr noundef @.str.3)
  call void (ptr, ...) @_ZN5Yosys3logEPKcz(ptr noundef @.str.15)
  call void (ptr, ...) @_ZN5Yosys3logEPKcz(ptr noundef @.str.3)
  call void (ptr, ...) @_ZN5Yosys3logEPKcz(ptr noundef @.str.3)
  call void (ptr, ...) @_ZN5Yosys3logEPKcz(ptr noundef @.str.16)
  call void (ptr, ...) @_ZN5Yosys3logEPKcz(ptr noundef @.str.11)
  call void (ptr, ...) @_ZN5Yosys3logEPKcz(ptr noundef @.str.17)
  call void (ptr, ...) @_ZN5Yosys3logEPKcz(ptr noundef @.str.18)
  call void (ptr, ...) @_ZN5Yosys3logEPKcz(ptr noundef @.str.3)
  call void (ptr, ...) @_ZN5Yosys3logEPKcz(ptr noundef @.str.19)
  call void (ptr, ...) @_ZN5Yosys3logEPKcz(ptr noundef @.str.3)
  call void (ptr, ...) @_ZN5Yosys3logEPKcz(ptr noundef @.str.3)
  call void (ptr, ...) @_ZN5Yosys3logEPKcz(ptr noundef @.str.20)
  call void (ptr, ...) @_ZN5Yosys3logEPKcz(ptr noundef @.str.11)
  call void (ptr, ...) @_ZN5Yosys3logEPKcz(ptr noundef @.str.21)
  call void (ptr, ...) @_ZN5Yosys3logEPKcz(ptr noundef @.str.22)
  call void (ptr, ...) @_ZN5Yosys3logEPKcz(ptr noundef @.str.23)
  call void (ptr, ...) @_ZN5Yosys3logEPKcz(ptr noundef @.str.24)
  call void (ptr, ...) @_ZN5Yosys3logEPKcz(ptr noundef @.str.25)
  call void (ptr, ...) @_ZN5Yosys3logEPKcz(ptr noundef @.str.26)
  call void (ptr, ...) @_ZN5Yosys3logEPKcz(ptr noundef @.str.27)
  call void (ptr, ...) @_ZN5Yosys3logEPKcz(ptr noundef @.str.28)
  call void (ptr, ...) @_ZN5Yosys3logEPKcz(ptr noundef @.str.29)
  call void (ptr, ...) @_ZN5Yosys3logEPKcz(ptr noundef @.str.30)
  call void (ptr, ...) @_ZN5Yosys3logEPKcz(ptr noundef @.str.31)
  call void (ptr, ...) @_ZN5Yosys3logEPKcz(ptr noundef @.str.32)
  call void (ptr, ...) @_ZN5Yosys3logEPKcz(ptr noundef @.str.33)
  call void (ptr, ...) @_ZN5Yosys3logEPKcz(ptr noundef @.str.3)
  call void (ptr, ...) @_ZN5Yosys3logEPKcz(ptr noundef @.str.3)
  call void (ptr, ...) @_ZN5Yosys3logEPKcz(ptr noundef @.str.34)
  call void (ptr, ...) @_ZN5Yosys3logEPKcz(ptr noundef @.str.3)
  call void (ptr, ...) @_ZN5Yosys3logEPKcz(ptr noundef @.str.35)
  call void (ptr, ...) @_ZN5Yosys3logEPKcz(ptr noundef @.str.36)
  call void (ptr, ...) @_ZN5Yosys3logEPKcz(ptr noundef @.str.37)
  call void (ptr, ...) @_ZN5Yosys3logEPKcz(ptr noundef @.str.3)
  call void (ptr, ...) @_ZN5Yosys3logEPKcz(ptr noundef @.str.38)
  call void (ptr, ...) @_ZN5Yosys3logEPKcz(ptr noundef @.str.39)
  call void (ptr, ...) @_ZN5Yosys3logEPKcz(ptr noundef @.str.40)
  call void (ptr, ...) @_ZN5Yosys3logEPKcz(ptr noundef @.str.41)
  call void (ptr, ...) @_ZN5Yosys3logEPKcz(ptr noundef @.str.3)
  call void (ptr, ...) @_ZN5Yosys3logEPKcz(ptr noundef @.str.42)
  call void (ptr, ...) @_ZN5Yosys3logEPKcz(ptr noundef @.str.43)
  call void (ptr, ...) @_ZN5Yosys3logEPKcz(ptr noundef @.str.44)
  call void (ptr, ...) @_ZN5Yosys3logEPKcz(ptr noundef @.str.45)
  call void (ptr, ...) @_ZN5Yosys3logEPKcz(ptr noundef @.str.46)
  call void (ptr, ...) @_ZN5Yosys3logEPKcz(ptr noundef @.str.47)
  call void (ptr, ...) @_ZN5Yosys3logEPKcz(ptr noundef @.str.48)
  call void (ptr, ...) @_ZN5Yosys3logEPKcz(ptr noundef @.str.49)
  call void (ptr, ...) @_ZN5Yosys3logEPKcz(ptr noundef @.str.3)
  call void (ptr, ...) @_ZN5Yosys3logEPKcz(ptr noundef @.str.50)
  call void (ptr, ...) @_ZN5Yosys3logEPKcz(ptr noundef @.str.51)
  call void (ptr, ...) @_ZN5Yosys3logEPKcz(ptr noundef @.str.52)
  call void (ptr, ...) @_ZN5Yosys3logEPKcz(ptr noundef @.str.53)
  call void (ptr, ...) @_ZN5Yosys3logEPKcz(ptr noundef @.str.54)
  call void (ptr, ...) @_ZN5Yosys3logEPKcz(ptr noundef @.str.3)
  call void (ptr, ...) @_ZN5Yosys3logEPKcz(ptr noundef @.str.55)
  call void (ptr, ...) @_ZN5Yosys3logEPKcz(ptr noundef @.str.56)
  call void (ptr, ...) @_ZN5Yosys3logEPKcz(ptr noundef @.str.57)
  call void (ptr, ...) @_ZN5Yosys3logEPKcz(ptr noundef @.str.58)
  call void (ptr, ...) @_ZN5Yosys3logEPKcz(ptr noundef @.str.59)
  call void (ptr, ...) @_ZN5Yosys3logEPKcz(ptr noundef @.str.3)
  call void (ptr, ...) @_ZN5Yosys3logEPKcz(ptr noundef @.str.60)
  call void (ptr, ...) @_ZN5Yosys3logEPKcz(ptr noundef @.str.61)
  call void (ptr, ...) @_ZN5Yosys3logEPKcz(ptr noundef @.str.62)
  call void (ptr, ...) @_ZN5Yosys3logEPKcz(ptr noundef @.str.63)
  call void (ptr, ...) @_ZN5Yosys3logEPKcz(ptr noundef @.str.3)
  call void (ptr, ...) @_ZN5Yosys3logEPKcz(ptr noundef @.str.64)
  call void (ptr, ...) @_ZN5Yosys3logEPKcz(ptr noundef @.str.65)
  call void (ptr, ...) @_ZN5Yosys3logEPKcz(ptr noundef @.str.3)
  ret void
}